target datalayout = "e-m:e-p270:32:32-p271:32:32-p272:64:64-i64:64-i128:128-f80:128-n8:16:32:64-S128"
target triple = "x86_64-pc-linux-gnu"

%struct.property_tag = type { [64 x i8], i16, i8, i8, i32, i32, i32, [16 x i8], i32, i32, i32, i32, i32, i32, i32, [4 x i8] }

@.str.82 = private unnamed_addr constant [20 x i8] c"[err name len: %d]\0A\00", align 1
@.str.83 = private unnamed_addr constant [10 x i8] c"OLE2: %s \00", align 1
@.str.84 = private unnamed_addr constant [9 x i8] c"<noname>\00", align 1
@.str.85 = private unnamed_addr constant [9 x i8] c" [file] \00", align 1
@.str.86 = private unnamed_addr constant [9 x i8] c" [dir ] \00", align 1
@.str.87 = private unnamed_addr constant [9 x i8] c" [root] \00", align 1
@.str.88 = private unnamed_addr constant [9 x i8] c" [unkn] \00", align 1
@.str.89 = private unnamed_addr constant [5 x i8] c" r  \00", align 1
@.str.90 = private unnamed_addr constant [5 x i8] c" b  \00", align 1
@.str.91 = private unnamed_addr constant [5 x i8] c" u  \00", align 1
@.str.92 = private unnamed_addr constant [29 x i8] c"%s size:0x%.8x flags:0x%.8x\0A\00", align 1
@.str.93 = private unnamed_addr constant [65 x i8] c"0123456789abcdefghijklmnopqrstuvwxyzabcdefghijklmnopqrstuvwxyz._\00", align 1
@.str.94 = private unnamed_addr constant [68 x i8] c"OLE2 [get_property_name]: Unable to allocate memory for newname %u\0A\00", align 1

; Function Attrs: nounwind uwtable
define internal ptr @get_property_name(ptr noundef %0, i32 noundef %1) #0 {
  %3 = alloca ptr, align 8
  %4 = alloca ptr, align 8
  %5 = alloca i32, align 4
  %6 = alloca ptr, align 8
  %7 = alloca i32, align 4
  %8 = alloca ptr, align 8
  %9 = alloca ptr, align 8
  %10 = alloca ptr, align 8
  %11 = alloca i16, align 2
  %12 = alloca i16, align 2
  %13 = alloca i16, align 2
  store ptr %0, ptr %4, align 8
  store i32 %1, ptr %5, align 4
  store ptr @.str.93, ptr %6, align 8
  %14 = load i32, ptr %5, align 4
  %15 = ashr i32 %14, 1
  store i32 %15, ptr %7, align 4
  store ptr null, ptr %8, align 8
  store ptr null, ptr %9, align 8
  %16 = load ptr, ptr %4, align 8
  store ptr %16, ptr %10, align 8
  %17 = load i32, ptr %7, align 4
  %18 = icmp sle i32 %17, 0
  br i1 %18, label %19, label %20

19:                                               ; preds = %2
  store ptr null, ptr %3, align 8
  br label %99

20:                                               ; preds = %2
  br label %21

21:                                               ; preds = %20
  %22 = load i32, ptr %5, align 4
  %23 = sext i32 %22 to i64
  %24 = call ptr @cli_max_malloc(i64 noundef %23)
  store ptr %24, ptr %8, align 8
  %25 = load ptr, ptr %8, align 8
  %26 = icmp eq ptr null, %25
  br i1 %26, label %27, label %31

27:                                               ; preds = %21
  br label %28

28:                                               ; preds = %27
  %29 = load i32, ptr %5, align 4
  call void (ptr, ...) @cli_errmsg(ptr noundef @.str.94, i32 noundef %29)
  br label %30

30:                                               ; preds = %28
  br label %97

31:                                               ; preds = %21
  br label %32

32:                                               ; preds = %31
  %33 = load ptr, ptr %8, align 8
  store ptr %33, ptr %9, align 8
  br label %34

34:                                               ; preds = %94, %32
  %35 = load i32, ptr %7, align 4
  %36 = add nsw i32 %35, -1
  store i32 %36, ptr %7, align 4
  %37 = icmp ne i32 %36, 0
  br i1 %37, label %38, label %95

38:                                               ; preds = %34
  %39 = load ptr, ptr %10, align 8
  %40 = load i16, ptr %39, align 1
  %41 = sext i16 %40 to i32
  %42 = sub nsw i32 %41, 14336
  %43 = trunc i32 %42 to i16
  store i16 %43, ptr %13, align 2
  %44 = load ptr, ptr %10, align 8
  %45 = getelementptr inbounds i8, ptr %44, i64 2
  store ptr %45, ptr %10, align 8
  %46 = load i16, ptr %13, align 2
  %47 = zext i16 %46 to i32
  %48 = icmp sgt i32 %47, 4160
  br i1 %48, label %49, label %60

49:                                               ; preds = %38
  br label %50

50:                                               ; preds = %49
  %51 = load ptr, ptr %8, align 8
  %52 = icmp ne ptr null, %51
  br i1 %52, label %53, label %55

53:                                               ; preds = %50
  %54 = load ptr, ptr %8, align 8
  call void @free(ptr noundef %54) #10
  store ptr null, ptr %8, align 8
  br label %55

55:                                               ; preds = %53, %50
  br label %56

56:                                               ; preds = %55
  %57 = load ptr, ptr %4, align 8
  %58 = load i32, ptr %5, align 4
  %59 = call ptr @cli_ole2_get_property_name2(ptr noundef %57, i32 noundef %58)
  store ptr %59, ptr %3, align 8
  br label %99

60:                                               ; preds = %38
  %61 = load i16, ptr %13, align 2
  %62 = zext i16 %61 to i32
  %63 = srem i32 %62, 64
  %64 = trunc i32 %63 to i16
  store i16 %64, ptr %11, align 2
  %65 = load i16, ptr %13, align 2
  %66 = zext i16 %65 to i32
  %67 = ashr i32 %66, 6
  %68 = trunc i32 %67 to i16
  store i16 %68, ptr %13, align 2
  %69 = load i16, ptr %13, align 2
  %70 = zext i16 %69 to i32
  %71 = srem i32 %70, 64
  %72 = trunc i32 %71 to i16
  store i16 %72, ptr %12, align 2
  %73 = load ptr, ptr %6, align 8
  %74 = load i16, ptr %11, align 2
  %75 = zext i16 %74 to i64
  %76 = getelementptr inbounds i8, ptr %73, i64 %75
  %77 = load i8, ptr %76, align 1
  %78 = load ptr, ptr %9, align 8
  %79 = getelementptr inbounds i8, ptr %78, i32 1
  store ptr %79, ptr %9, align 8
  store i8 %77, ptr %78, align 1
  %80 = load i32, ptr %7, align 4
  %81 = icmp ne i32 %80, 1
  br i1 %81, label %86, label %82

82:                                               ; preds = %60
  %83 = load i16, ptr %13, align 2
  %84 = zext i16 %83 to i32
  %85 = icmp ne i32 %84, 64
  br i1 %85, label %86, label %94

86:                                               ; preds = %82, %60
  %87 = load ptr, ptr %6, align 8
  %88 = load i16, ptr %12, align 2
  %89 = zext i16 %88 to i64
  %90 = getelementptr inbounds i8, ptr %87, i64 %89
  %91 = load i8, ptr %90, align 1
  %92 = load ptr, ptr %9, align 8
  %93 = getelementptr inbounds i8, ptr %92, i32 1
  store ptr %93, ptr %9, align 8
  store i8 %91, ptr %92, align 1
  br label %94

94:                                               ; preds = %86, %82
  br label %34

95:                                               ; preds = %34
  %96 = load ptr, ptr %9, align 8
  store i8 0, ptr %96, align 1
  br label %97

97:                                               ; preds = %95, %30
  %98 = load ptr, ptr %8, align 8
  store ptr %98, ptr %3, align 8
  br label %99

99:                                               ; preds = %97, %56, %19
  %100 = load ptr, ptr %3, align 8
  ret ptr %100
}

; Function Attrs: nounwind uwtable
define internal void @print_ole2_property(ptr noundef %0) #0 {
  %2 = alloca ptr, align 8
  %3 = alloca [128 x i8], align 16
  %4 = alloca ptr, align 8
  store ptr %0, ptr %2, align 8
  %5 = load ptr, ptr %2, align 8
  %6 = getelementptr inbounds %struct.property_tag, ptr %5, i32 0, i32 1
  %7 = load i16, ptr %6, align 1
  %8 = zext i16 %7 to i32
  %9 = icmp sgt i32 %8, 64
  br i1 %9, label %10, label %15

10:                                               ; preds = %1
  %11 = load ptr, ptr %2, align 8
  %12 = getelementptr inbounds %struct.property_tag, ptr %11, i32 0, i32 1
  %13 = load i16, ptr %12, align 1
  %14 = zext i16 %13 to i32
  call void (ptr, ...) @cli_dbgmsg(ptr noundef @.str.82, i32 noundef %14)
  br label %100

15:                                               ; preds = %1
  %16 = load ptr, ptr %2, align 8
  %17 = getelementptr inbounds %struct.property_tag, ptr %16, i32 0, i32 0
  %18 = getelementptr inbounds [64 x i8], ptr %17, i64 0, i64 0
  %19 = load ptr, ptr %2, align 8
  %20 = getelementptr inbounds %struct.property_tag, ptr %19, i32 0, i32 1
  %21 = load i16, ptr %20, align 1
  %22 = zext i16 %21 to i32
  %23 = call ptr @get_property_name(ptr noundef %18, i32 noundef %22)
  store ptr %23, ptr %4, align 8
  %24 = getelementptr inbounds [128 x i8], ptr %3, i64 0, i64 0
  %25 = load ptr, ptr %4, align 8
  %26 = icmp ne ptr %25, null
  br i1 %26, label %27, label %29

27:                                               ; preds = %15
  %28 = load ptr, ptr %4, align 8
  br label %30

29:                                               ; preds = %15
  br label %30

30:                                               ; preds = %29, %27
  %31 = phi ptr [ %28, %27 ], [ @.str.84, %29 ]
  %32 = call i32 (ptr, i64, ptr, ...) @snprintf(ptr noundef %24, i64 noundef 128, ptr noundef @.str.83, ptr noundef %31) #10
  %33 = getelementptr inbounds [128 x i8], ptr %3, i64 0, i64 127
  store i8 0, ptr %33, align 1
  %34 = load ptr, ptr %4, align 8
  %35 = icmp ne ptr %34, null
  br i1 %35, label %36, label %38

36:                                               ; preds = %30
  %37 = load ptr, ptr %4, align 8
  call void @free(ptr noundef %37) #10
  br label %38

38:                                               ; preds = %36, %30
  %39 = load ptr, ptr %2, align 8
  %40 = getelementptr inbounds %struct.property_tag, ptr %39, i32 0, i32 2
  %41 = load i8, ptr %40, align 1
  %42 = zext i8 %41 to i32
  switch i32 %42, label %61 [
    i32 2, label %43
    i32 1, label %49
    i32 5, label %55
  ]

43:                                               ; preds = %38
  %44 = getelementptr inbounds [128 x i8], ptr %3, i64 0, i64 0
  %45 = getelementptr inbounds [128 x i8], ptr %3, i64 0, i64 0
  %46 = call i64 @strlen(ptr noundef %45) #12
  %47 = sub i64 127, %46
  %48 = call ptr @strncat(ptr noundef %44, ptr noundef @.str.85, i64 noundef %47) #10
  br label %67

49:                                               ; preds = %38
  %50 = getelementptr inbounds [128 x i8], ptr %3, i64 0, i64 0
  %51 = getelementptr inbounds [128 x i8], ptr %3, i64 0, i64 0
  %52 = call i64 @strlen(ptr noundef %51) #12
  %53 = sub i64 127, %52
  %54 = call ptr @strncat(ptr noundef %50, ptr noundef @.str.86, i64 noundef %53) #10
  br label %67

55:                                               ; preds = %38
  %56 = getelementptr inbounds [128 x i8], ptr %3, i64 0, i64 0
  %57 = getelementptr inbounds [128 x i8], ptr %3, i64 0, i64 0
  %58 = call i64 @strlen(ptr noundef %57) #12
  %59 = sub i64 127, %58
  %60 = call ptr @strncat(ptr noundef %56, ptr noundef @.str.87, i64 noundef %59) #10
  br label %67

61:                                               ; preds = %38
  %62 = getelementptr inbounds [128 x i8], ptr %3, i64 0, i64 0
  %63 = getelementptr inbounds [128 x i8], ptr %3, i64 0, i64 0
  %64 = call i64 @strlen(ptr noundef %63) #12
  %65 = sub i64 127, %64
  %66 = call ptr @strncat(ptr noundef %62, ptr noundef @.str.88, i64 noundef %65) #10
  br label %67

67:                                               ; preds = %61, %55, %49, %43
  %68 = getelementptr inbounds [128 x i8], ptr %3, i64 0, i64 127
  store i8 0, ptr %68, align 1
  %69 = load ptr, ptr %2, align 8
  %70 = getelementptr inbounds %struct.property_tag, ptr %69, i32 0, i32 3
  %71 = load i8, ptr %70, align 1
  %72 = zext i8 %71 to i32
  switch i32 %72, label %85 [
    i32 0, label %73
    i32 1, label %79
  ]

73:                                               ; preds = %67
  %74 = getelementptr inbounds [128 x i8], ptr %3, i64 0, i64 0
  %75 = getelementptr inbounds [128 x i8], ptr %3, i64 0, i64 0
  %76 = call i64 @strlen(ptr noundef %75) #12
  %77 = sub i64 127, %76
  %78 = call ptr @strncat(ptr noundef %74, ptr noundef @.str.89, i64 noundef %77) #10
  br label %91

79:                                               ; preds = %67
  %80 = getelementptr inbounds [128 x i8], ptr %3, i64 0, i64 0
  %81 = getelementptr inbounds [128 x i8], ptr %3, i64 0, i64 0
  %82 = call i64 @strlen(ptr noundef %81) #12
  %83 = sub i64 127, %82
  %84 = call ptr @strncat(ptr noundef %80, ptr noundef @.str.90, i64 noundef %83) #10
  br label %91

85:                                               ; preds = %67
  %86 = getelementptr inbounds [128 x i8], ptr %3, i64 0, i64 0
  %87 = getelementptr inbounds [128 x i8], ptr %3, i64 0, i64 0
  %88 = call i64 @strlen(ptr noundef %87) #12
  %89 = sub i64 127, %88
  %90 = call ptr @strncat(ptr noundef %86, ptr noundef @.str.91, i64 noundef %89) #10
  br label %91

91:                                               ; preds = %85, %79, %73
  %92 = getelementptr inbounds [128 x i8], ptr %3, i64 0, i64 127
  store i8 0, ptr %92, align 1
  %93 = getelementptr inbounds [128 x i8], ptr %3, i64 0, i64 0
  %94 = load ptr, ptr %2, align 8
  %95 = getelementptr inbounds %struct.property_tag, ptr %94, i32 0, i32 14
  %96 = load i32, ptr %95, align 1
  %97 = load ptr, ptr %2, align 8
  %98 = getelementptr inbounds %struct.property_tag, ptr %97, i32 0, i32 8
  %99 = load i32, ptr %98, align 1
  call void (ptr, ...) @cli_dbgmsg(ptr noundef @.str.92, ptr noundef %93, i32 noundef %96, i32 noundef %99)
  br label %100

100:                                              ; preds = %91, %10
  ret void
}