; Function Attrs: nounwind uwtable
define internal fastcc void @print_ole2_property(ptr nocapture noundef readonly %0) unnamed_addr #2 {
  %2 = alloca [128 x i8], align 16
  %3 = getelementptr inbounds i8, ptr %0, i64 64
  %4 = load i16, ptr %3, align 1
  %5 = zext i16 %4 to i32
  %6 = icmp ugt i16 %4, 64
  br i1 %6, label %7, label %8

7:                                                ; preds = %1
  tail call void (ptr, ...) @cli_dbgmsg(ptr noundef nonnull @.str.82, i32 noundef %5) #21
  br label %62

8:                                                ; preds = %1
  %9 = icmp ult i16 %4, 2
  br i1 %9, label %get_property_name.exit, label %10

10:                                               ; preds = %8
  %11 = zext nneg i16 %4 to i64
  %12 = tail call ptr @cli_max_malloc(i64 noundef %11) #21
  %13 = icmp eq ptr %12, null
  br i1 %13, label %16, label %.preheader.i

.preheader.i:                                     ; preds = %10
  %14 = lshr i32 %5, 1
  %15 = add nsw i32 %14, -1
  %.not38.i = icmp eq i32 %15, 0
  br i1 %.not38.i, label %._crit_edge.i, label %.lr.ph.i

16:                                               ; preds = %10
  tail call void (ptr, ...) @cli_errmsg(ptr noundef nonnull @.str.94, i32 noundef %5) #21
  br label %get_property_name.exit

.lr.ph.i:                                         ; preds = %.preheader.i, %33
  %17 = phi i32 [ %39, %33 ], [ %15, %.preheader.i ]
  %.03140.i = phi ptr [ %20, %33 ], [ %0, %.preheader.i ]
  %.03239.i = phi ptr [ %38, %33 ], [ %12, %.preheader.i ]
  %18 = load i16, ptr %.03140.i, align 1
  %19 = add i16 %18, -14336
  %20 = getelementptr inbounds i8, ptr %.03140.i, i64 2
  %21 = icmp ugt i16 %19, 4160
  br i1 %21, label %22, label %24

22:                                               ; preds = %.lr.ph.i
  tail call void @free(ptr noundef %12) #21
  %23 = tail call ptr @cli_ole2_get_property_name2(ptr noundef %0, i32 noundef %5)
  br label %get_property_name.exit

24:                                               ; preds = %.lr.ph.i
  %25 = and i16 %18, 63
  %26 = lshr i16 %19, 6
  %27 = zext nneg i16 %25 to i64
  %28 = getelementptr inbounds i8, ptr @.str.93, i64 %27
  %29 = load i8, ptr %28, align 1
  %30 = getelementptr inbounds i8, ptr %.03239.i, i64 1
  store i8 %29, ptr %.03239.i, align 1
  %31 = icmp ne i32 %17, 1
  %32 = icmp ne i16 %26, 64
  %or.cond.i = or i1 %31, %32
  br i1 %or.cond.i, label %33, label %._crit_edge.i

33:                                               ; preds = %24
  %34 = and i16 %26, 63
  %35 = zext nneg i16 %34 to i64
  %36 = getelementptr inbounds i8, ptr @.str.93, i64 %35
  %37 = load i8, ptr %36, align 1
  %38 = getelementptr inbounds i8, ptr %.03239.i, i64 2
  store i8 %37, ptr %30, align 1
  %39 = add nsw i32 %17, -1
  %.not.i = icmp eq i32 %39, 0
  br i1 %.not.i, label %._crit_edge.i, label %.lr.ph.i

._crit_edge.i:                                    ; preds = %33, %24, %.preheader.i
  %.032.lcssa.i = phi ptr [ %12, %.preheader.i ], [ %38, %33 ], [ %30, %24 ]
  store i8 0, ptr %.032.lcssa.i, align 1
  br label %get_property_name.exit

get_property_name.exit:                           ; preds = %8, %16, %22, %._crit_edge.i
  %.0.i = phi ptr [ %23, %22 ], [ null, %8 ], [ %12, %._crit_edge.i ], [ null, %16 ]
  %.not = icmp eq ptr %.0.i, null
  %40 = select i1 %.not, ptr @.str.84, ptr %.0.i
  %41 = call i32 (ptr, i64, ptr, ...) @snprintf(ptr noundef nonnull dereferenceable(1) %2, i64 noundef 128, ptr noundef nonnull @.str.83, ptr noundef nonnull %40) #21
  %42 = getelementptr inbounds i8, ptr %2, i64 127
  store i8 0, ptr %42, align 1
  br i1 %.not, label %44, label %43

43:                                               ; preds = %get_property_name.exit
  tail call void @free(ptr noundef nonnull %.0.i) #21
  br label %44

44:                                               ; preds = %43, %get_property_name.exit
  %45 = getelementptr inbounds i8, ptr %0, i64 66
  %46 = load i8, ptr %45, align 1
  %47 = call i64 @strlen(ptr noundef nonnull dereferenceable(1) %2) #23
  %48 = sub i64 127, %47
  %switch.tableidx = add i8 %46, -1
  %49 = icmp ult i8 %switch.tableidx, 5
  br i1 %49, label %switch.lookup, label %51

switch.lookup:                                    ; preds = %44
  %50 = zext nneg i8 %switch.tableidx to i64
  %switch.gep = getelementptr inbounds [5 x ptr], ptr @switch.table.print_ole2_property, i64 0, i64 %50
  %switch.load = load ptr, ptr %switch.gep, align 8
  br label %51

51:                                               ; preds = %44, %switch.lookup
  %.str.88.sink = phi ptr [ %switch.load, %switch.lookup ], [ @.str.88, %44 ]
  %52 = call ptr @strncat(ptr noundef nonnull dereferenceable(1) %2, ptr noundef nonnull %.str.88.sink, i64 noundef %48) #21
  store i8 0, ptr %42, align 1
  %53 = getelementptr inbounds i8, ptr %0, i64 67
  %54 = load i8, ptr %53, align 1
  %switch.selectcmp = icmp eq i8 %54, 1
  %switch.select = select i1 %switch.selectcmp, ptr @.str.90, ptr @.str.91
  %switch.selectcmp14 = icmp eq i8 %54, 0
  %switch.select15 = select i1 %switch.selectcmp14, ptr @.str.89, ptr %switch.select
  %55 = call i64 @strlen(ptr noundef nonnull dereferenceable(1) %2) #23
  %56 = sub i64 127, %55
  %57 = call ptr @strncat(ptr noundef nonnull dereferenceable(1) %2, ptr noundef nonnull %switch.select15, i64 noundef %56) #21
  store i8 0, ptr %42, align 1
  %58 = getelementptr inbounds i8, ptr %0, i64 120
  %59 = load i32, ptr %58, align 1
  %60 = getelementptr inbounds i8, ptr %0, i64 96
  %61 = load i32, ptr %60, align 1
  call void (ptr, ...) @cli_dbgmsg(ptr noundef nonnull @.str.92, ptr noundef nonnull %2, i32 noundef %59, i32 noundef %61) #21
  br label %62

62:                                               ; preds = %51, %7
  ret void
}